target datalayout = "e-m:e-p270:32:32-p271:32:32-p272:64:64-i64:64-i128:128-f80:128-n8:16:32:64-S128"
target triple = "x86_64-pc-linux-gnu"

; Function Attrs: alwaysinline nounwind willreturn memory(none) uwtable
define internal zeroext i16 @av_bswap16(i16 noundef zeroext %0) #6 {
  %2 = alloca i16, align 2
  store i16 %0, ptr %2, align 2, !tbaa !49
  %3 = load i16, ptr %2, align 2, !tbaa !49
  %4 = zext i16 %3 to i32
  %5 = ashr i32 %4, 8
  %6 = load i16, ptr %2, align 2, !tbaa !49
  %7 = zext i16 %6 to i32
  %8 = shl i32 %7, 8
  %9 = or i32 %5, %8
  %10 = trunc i32 %9 to i16
  store i16 %10, ptr %2, align 2, !tbaa !49
  %11 = load i16, ptr %2, align 2, !tbaa !49
  ret i16 %11
}

; Function Attrs: alwaysinline nounwind willreturn memory(none) uwtable
define internal i32 @av_clip_uintp2_c(i32 noundef %0, i32 noundef %1) #6 {
  %3 = alloca i32, align 4
  %4 = alloca i32, align 4
  %5 = alloca i32, align 4
  store i32 %0, ptr %4, align 4, !tbaa !30
  store i32 %1, ptr %5, align 4, !tbaa !30
  %6 = load i32, ptr %4, align 4, !tbaa !30
  %7 = load i32, ptr %5, align 4, !tbaa !30
  %8 = shl i32 1, %7
  %9 = sub i32 %8, 1
  %10 = xor i32 %9, -1
  %11 = and i32 %6, %10
  %12 = icmp ne i32 %11, 0
  br i1 %12, label %13, label %21

13:                                               ; preds = %2
  %14 = load i32, ptr %4, align 4, !tbaa !30
  %15 = xor i32 %14, -1
  %16 = ashr i32 %15, 31
  %17 = load i32, ptr %5, align 4, !tbaa !30
  %18 = shl i32 1, %17
  %19 = sub i32 %18, 1
  %20 = and i32 %16, %19
  store i32 %20, ptr %3, align 4
  br label %23

21:                                               ; preds = %2
  %22 = load i32, ptr %4, align 4, !tbaa !30
  store i32 %22, ptr %3, align 4
  br label %23

23:                                               ; preds = %21, %13
  %24 = load i32, ptr %3, align 4
  ret i32 %24
}

; Function Attrs: alwaysinline nounwind uwtable
define internal void @yuv2plane1_10_c_template(ptr noundef %0, ptr noundef %1, i32 noundef %2, i32 noundef %3, i32 noundef %4) #3 {
  %6 = alloca ptr, align 8
  %7 = alloca ptr, align 8
  %8 = alloca i32, align 4
  %9 = alloca i32, align 4
  %10 = alloca i32, align 4
  %11 = alloca i32, align 4
  %12 = alloca i32, align 4
  %13 = alloca i32, align 4
  store ptr %0, ptr %6, align 8, !tbaa !45
  store ptr %1, ptr %7, align 8, !tbaa !45
  store i32 %2, ptr %8, align 4, !tbaa !30
  store i32 %3, ptr %9, align 4, !tbaa !30
  store i32 %4, ptr %10, align 4, !tbaa !30
  call void @llvm.lifetime.start.p0(i64 4, ptr %11) #8
  call void @llvm.lifetime.start.p0(i64 4, ptr %12) #8
  %14 = load i32, ptr %10, align 4, !tbaa !30
  %15 = sub nsw i32 15, %14
  store i32 %15, ptr %12, align 4, !tbaa !30
  store i32 0, ptr %11, align 4, !tbaa !30
  br label %16

16:                                               ; preds = %57, %5
  %17 = load i32, ptr %11, align 4, !tbaa !30
  %18 = load i32, ptr %8, align 4, !tbaa !30
  %19 = icmp slt i32 %17, %18
  br i1 %19, label %20, label %60

20:                                               ; preds = %16
  call void @llvm.lifetime.start.p0(i64 4, ptr %13) #8
  %21 = load ptr, ptr %6, align 8, !tbaa !45
  %22 = load i32, ptr %11, align 4, !tbaa !30
  %23 = sext i32 %22 to i64
  %24 = getelementptr inbounds i16, ptr %21, i64 %23
  %25 = load i16, ptr %24, align 2, !tbaa !49
  %26 = sext i16 %25 to i32
  %27 = load i32, ptr %12, align 4, !tbaa !30
  %28 = sub nsw i32 %27, 1
  %29 = shl i32 1, %28
  %30 = add nsw i32 %26, %29
  store i32 %30, ptr %13, align 4, !tbaa !30
  %31 = load i32, ptr %9, align 4, !tbaa !30
  %32 = icmp ne i32 %31, 0
  br i1 %32, label %33, label %45

33:                                               ; preds = %20
  %34 = load i32, ptr %13, align 4, !tbaa !30
  %35 = load i32, ptr %12, align 4, !tbaa !30
  %36 = ashr i32 %34, %35
  %37 = load i32, ptr %10, align 4, !tbaa !30
  %38 = call i32 @av_clip_uintp2_c(i32 noundef %36, i32 noundef %37) #10
  %39 = trunc i32 %38 to i16
  %40 = call zeroext i16 @av_bswap16(i16 noundef zeroext %39) #10
  %41 = load ptr, ptr %7, align 8, !tbaa !45
  %42 = load i32, ptr %11, align 4, !tbaa !30
  %43 = sext i32 %42 to i64
  %44 = getelementptr inbounds i16, ptr %41, i64 %43
  store i16 %40, ptr %44, align 1, !tbaa !51
  br label %56

45:                                               ; preds = %20
  %46 = load i32, ptr %13, align 4, !tbaa !30
  %47 = load i32, ptr %12, align 4, !tbaa !30
  %48 = ashr i32 %46, %47
  %49 = load i32, ptr %10, align 4, !tbaa !30
  %50 = call i32 @av_clip_uintp2_c(i32 noundef %48, i32 noundef %49) #10
  %51 = trunc i32 %50 to i16
  %52 = load ptr, ptr %7, align 8, !tbaa !45
  %53 = load i32, ptr %11, align 4, !tbaa !30
  %54 = sext i32 %53 to i64
  %55 = getelementptr inbounds i16, ptr %52, i64 %54
  store i16 %51, ptr %55, align 1, !tbaa !51
  br label %56

56:                                               ; preds = %45, %33
  call void @llvm.lifetime.end.p0(i64 4, ptr %13) #8
  br label %57

57:                                               ; preds = %56
  %58 = load i32, ptr %11, align 4, !tbaa !30
  %59 = add nsw i32 %58, 1
  store i32 %59, ptr %11, align 4, !tbaa !30
  br label %16, !llvm.loop !118

60:                                               ; preds = %16
  call void @llvm.lifetime.end.p0(i64 4, ptr %12) #8
  call void @llvm.lifetime.end.p0(i64 4, ptr %11) #8
  ret void
}

; Function Attrs: nounwind uwtable
define internal void @yuv2plane1_10LE_c(ptr noundef %0, ptr noundef %1, i32 noundef %2, ptr noundef %3, i32 noundef %4) #4 {
  %6 = alloca ptr, align 8
  %7 = alloca ptr, align 8
  %8 = alloca i32, align 4
  %9 = alloca ptr, align 8
  %10 = alloca i32, align 4
  store ptr %0, ptr %6, align 8, !tbaa !45
  store ptr %1, ptr %7, align 8, !tbaa !46
  store i32 %2, ptr %8, align 4, !tbaa !30
  store ptr %3, ptr %9, align 8, !tbaa !46
  store i32 %4, ptr %10, align 4, !tbaa !30
  %11 = load ptr, ptr %6, align 8, !tbaa !45
  %12 = load ptr, ptr %7, align 8, !tbaa !46
  %13 = load i32, ptr %8, align 4, !tbaa !30
  call void @yuv2plane1_10_c_template(ptr noundef %11, ptr noundef %12, i32 noundef %13, i32 noundef 0, i32 noundef 10)
  ret void
}